; Function Attrs: mustprogress uwtable
define noundef i32 @_ZN17grpc_event_engine12experimental15PollEventHandle14SetReadyLockedEPPNS0_18PosixEngineClosureE(ptr nocapture noundef nonnull readonly align 16 dereferenceable(200) %this, ptr nocapture noundef %st) local_unnamed_addr #4 align 2 personality ptr @__gxx_personality_v0 {
entry:
  %agg.tmp = alloca %"class.absl::lts_20230802::Status", align 8
  %0 = load ptr, ptr %st, align 8
  %magicptr = ptrtoint ptr %0 to i64
  switch i64 %magicptr, label %if.else4 [
    i64 1, label %return
    i64 0, label %if.then3
  ]

if.then3:                                         ; preds = %entry
  store ptr inttoptr (i64 1 to ptr), ptr %st, align 8
  br label %return

if.else4:                                         ; preds = %entry
  store ptr null, ptr %st, align 8
  %shutdown_error_ = getelementptr inbounds i8, ptr %this, i64 120
  %1 = load i64, ptr %shutdown_error_, align 8
  store i64 %1, ptr %agg.tmp, align 8
  %and.i.i.i = and i64 %1, 1
  %cmp.i.i.i = icmp eq i64 %and.i.i.i, 0
  br i1 %cmp.i.i.i, label %_ZN4absl12lts_202308026StatusC2ERKS1_.exit, label %_ZN4absl12lts_202308026StatusC2ERKS1_.exit.thread

_ZN4absl12lts_202308026StatusC2ERKS1_.exit:       ; preds = %if.else4
  %status_.i = getelementptr inbounds i8, ptr %0, i64 56
  %2 = load i64, ptr %status_.i, align 8
  %cmp.not.i.i = icmp eq i64 %1, %2
  br i1 %cmp.not.i.i, label %invoke.cont, label %_ZN4absl12lts_202308026Status3RefEm.exit.i.i

_ZN4absl12lts_202308026StatusC2ERKS1_.exit.thread: ; preds = %if.else4
  %sub.i.i.i = add nsw i64 %1, -1
  %3 = inttoptr i64 %sub.i.i.i to ptr
  %4 = atomicrmw add ptr %3, i32 1 monotonic, align 4
  %status_.i10 = getelementptr inbounds i8, ptr %0, i64 56
  %5 = load i64, ptr %status_.i10, align 8
  %cmp.not.i.i11 = icmp eq i64 %1, %5
  br i1 %cmp.not.i.i11, label %if.then.i.i9, label %if.then.i.i.i

if.then.i.i.i:                                    ; preds = %_ZN4absl12lts_202308026StatusC2ERKS1_.exit.thread
  %sub.i.i.i.i = add nsw i64 %1, -1
  %6 = inttoptr i64 %sub.i.i.i.i to ptr
  %7 = atomicrmw add ptr %6, i32 1 monotonic, align 4
  br label %_ZN4absl12lts_202308026Status3RefEm.exit.i.i

_ZN4absl12lts_202308026Status3RefEm.exit.i.i:     ; preds = %_ZN4absl12lts_202308026StatusC2ERKS1_.exit, %if.then.i.i.i
  %status_.i1215 = phi ptr [ %status_.i10, %if.then.i.i.i ], [ %status_.i, %_ZN4absl12lts_202308026StatusC2ERKS1_.exit ]
  %8 = phi i64 [ %5, %if.then.i.i.i ], [ %2, %_ZN4absl12lts_202308026StatusC2ERKS1_.exit ]
  store i64 %1, ptr %status_.i1215, align 8
  %and.i.i5.i.i = and i64 %8, 1
  %cmp.i.i6.i.i = icmp eq i64 %and.i.i5.i.i, 0
  br i1 %cmp.i.i6.i.i, label %invoke.cont, label %if.then.i7.i.i

if.then.i7.i.i:                                   ; preds = %_ZN4absl12lts_202308026Status3RefEm.exit.i.i
  invoke void @_ZN4absl12lts_202308026Status15UnrefNonInlinedEm(i64 noundef %8)
          to label %invoke.cont unwind label %lpad

invoke.cont:                                      ; preds = %_ZN4absl12lts_202308026Status3RefEm.exit.i.i, %_ZN4absl12lts_202308026StatusC2ERKS1_.exit, %if.then.i7.i.i
  br i1 %cmp.i.i.i, label %_ZN4absl12lts_202308026StatusD2Ev.exit, label %if.then.i.i9

if.then.i.i9:                                     ; preds = %_ZN4absl12lts_202308026StatusC2ERKS1_.exit.thread, %invoke.cont
  invoke void @_ZN4absl12lts_202308026Status15UnrefNonInlinedEm(i64 noundef %1)
          to label %_ZN4absl12lts_202308026StatusD2Ev.exit unwind label %terminate.lpad.i

terminate.lpad.i:                                 ; preds = %if.then.i.i9
  %9 = landingpad { ptr, i32 }
          catch ptr null
  %10 = extractvalue { ptr, i32 } %9, 0
  tail call void @__clang_call_terminate(ptr %10) #24
  unreachable

_ZN4absl12lts_202308026StatusD2Ev.exit:           ; preds = %invoke.cont, %if.then.i.i9
  %scheduler_ = getelementptr inbounds i8, ptr %this, i64 80
  %11 = load ptr, ptr %scheduler_, align 16
  %vtable = load ptr, ptr %11, align 8
  %12 = load ptr, ptr %vtable, align 8
  tail call void %12(ptr noundef nonnull align 8 dereferenceable(8) %11, ptr noundef nonnull %0)
  br label %return

lpad:                                             ; preds = %if.then.i7.i.i
  %13 = landingpad { ptr, i32 }
          cleanup
  call void @_ZN4absl12lts_202308026StatusD2Ev(ptr noundef nonnull align 8 dereferenceable(8) %agg.tmp) #22
  resume { ptr, i32 } %13

return:                                           ; preds = %entry, %_ZN4absl12lts_202308026StatusD2Ev.exit, %if.then3
  %retval.0 = phi i32 [ 0, %if.then3 ], [ 1, %_ZN4absl12lts_202308026StatusD2Ev.exit ], [ 0, %entry ]
  ret i32 %retval.0
}